; Function Attrs: mustprogress uwtable
define hidden void @_ZN11shared_occs7cleanupEv(ptr nocapture noundef nonnull align 8 dereferenceable(40) %this) local_unnamed_addr #3 align 2 {
entry:
  %m_shared.i = getelementptr inbounds i8, ptr %this, i64 16
  %m_nodes.i.i = getelementptr inbounds i8, ptr %this, i64 24
  %0 = load ptr, ptr %m_nodes.i.i, align 8
  %cmp.i.i.i = icmp eq ptr %0, null
  br i1 %cmp.i.i.i, label %_ZN15ref_vector_coreI4expr19ref_manager_wrapperIS0_11ast_managerEE8finalizeEv.exit, label %_ZNK6vectorIP4exprLb0EjE4sizeEv.exit.i.i

_ZNK6vectorIP4exprLb0EjE4sizeEv.exit.i.i:         ; preds = %entry
  %arrayidx.i.i.i = getelementptr inbounds i8, ptr %0, i64 -4
  %1 = load i32, ptr %arrayidx.i.i.i, align 4
  %2 = zext i32 %1 to i64
  %add.ptr.i.i = getelementptr inbounds ptr, ptr %0, i64 %2
  %cmp3.i.not.i.i = icmp eq i32 %1, 0
  br i1 %cmp3.i.not.i.i, label %_ZN11shared_occs5resetEv.exit, label %for.body.i.i.i

for.body.i.i.i:                                   ; preds = %_ZNK6vectorIP4exprLb0EjE4sizeEv.exit.i.i, %_ZN15ref_vector_coreI4expr19ref_manager_wrapperIS0_11ast_managerEE7dec_refEPS0_.exit.i.i.i
  %it.04.i.i.i = phi ptr [ %incdec.ptr.i.i.i, %_ZN15ref_vector_coreI4expr19ref_manager_wrapperIS0_11ast_managerEE7dec_refEPS0_.exit.i.i.i ], [ %0, %_ZNK6vectorIP4exprLb0EjE4sizeEv.exit.i.i ]
  %3 = load ptr, ptr %it.04.i.i.i, align 8
  %4 = load ptr, ptr %m_shared.i, align 8
  %tobool.not.i.i.i.i.i.i = icmp eq ptr %3, null
  br i1 %tobool.not.i.i.i.i.i.i, label %_ZN15ref_vector_coreI4expr19ref_manager_wrapperIS0_11ast_managerEE7dec_refEPS0_.exit.i.i.i, label %if.then.i.i.i.i.i.i

if.then.i.i.i.i.i.i:                              ; preds = %for.body.i.i.i
  %m_ref_count.i.i.i.i.i.i.i = getelementptr inbounds i8, ptr %3, i64 8
  %5 = load i32, ptr %m_ref_count.i.i.i.i.i.i.i, align 4
  %dec.i.i.i.i.i.i.i = add i32 %5, -1
  store i32 %dec.i.i.i.i.i.i.i, ptr %m_ref_count.i.i.i.i.i.i.i, align 4
  %cmp.i.i.i.i.i.i = icmp eq i32 %dec.i.i.i.i.i.i.i, 0
  br i1 %cmp.i.i.i.i.i.i, label %if.then2.i.i.i.i.i.i, label %_ZN15ref_vector_coreI4expr19ref_manager_wrapperIS0_11ast_managerEE7dec_refEPS0_.exit.i.i.i

if.then2.i.i.i.i.i.i:                             ; preds = %if.then.i.i.i.i.i.i
  tail call void @_ZN11ast_manager11delete_nodeEP3ast(ptr noundef nonnull align 8 dereferenceable(976) %4, ptr noundef nonnull %3)
  br label %_ZN15ref_vector_coreI4expr19ref_manager_wrapperIS0_11ast_managerEE7dec_refEPS0_.exit.i.i.i

_ZN15ref_vector_coreI4expr19ref_manager_wrapperIS0_11ast_managerEE7dec_refEPS0_.exit.i.i.i: ; preds = %if.then2.i.i.i.i.i.i, %if.then.i.i.i.i.i.i, %for.body.i.i.i
  %incdec.ptr.i.i.i = getelementptr inbounds i8, ptr %it.04.i.i.i, i64 8
  %cmp.i1.i.i = icmp ult ptr %incdec.ptr.i.i.i, %add.ptr.i.i
  br i1 %cmp.i1.i.i, label %for.body.i.i.i, label %_ZN15ref_vector_coreI4expr19ref_manager_wrapperIS0_11ast_managerEE13dec_range_refEPKPS0_S7_.exit.i.i, !llvm.loop !4

_ZN15ref_vector_coreI4expr19ref_manager_wrapperIS0_11ast_managerEE13dec_range_refEPKPS0_S7_.exit.i.i: ; preds = %_ZN15ref_vector_coreI4expr19ref_manager_wrapperIS0_11ast_managerEE7dec_refEPS0_.exit.i.i.i
  %.pre.i.i = load ptr, ptr %m_nodes.i.i, align 8
  %tobool.not.i.i.i = icmp eq ptr %.pre.i.i, null
  br i1 %tobool.not.i.i.i, label %_ZN15ref_vector_coreI4expr19ref_manager_wrapperIS0_11ast_managerEE8finalizeEv.exit, label %_ZN11shared_occs5resetEv.exit

_ZN11shared_occs5resetEv.exit:                    ; preds = %_ZNK6vectorIP4exprLb0EjE4sizeEv.exit.i.i, %_ZN15ref_vector_coreI4expr19ref_manager_wrapperIS0_11ast_managerEE13dec_range_refEPKPS0_S7_.exit.i.i
  %6 = phi ptr [ %.pre.i.i, %_ZN15ref_vector_coreI4expr19ref_manager_wrapperIS0_11ast_managerEE13dec_range_refEPKPS0_S7_.exit.i.i ], [ %0, %_ZNK6vectorIP4exprLb0EjE4sizeEv.exit.i.i ]
  %arrayidx.i2.i.i = getelementptr inbounds i8, ptr %6, i64 -4
  store i32 0, ptr %arrayidx.i2.i.i, align 4
  %.pre = load ptr, ptr %m_nodes.i.i, align 8
  %cmp.i.i = icmp eq ptr %.pre, null
  br i1 %cmp.i.i, label %_ZN15ref_vector_coreI4expr19ref_manager_wrapperIS0_11ast_managerEE8finalizeEv.exit, label %_ZNK6vectorIP4exprLb0EjE4sizeEv.exit.i

_ZNK6vectorIP4exprLb0EjE4sizeEv.exit.i:           ; preds = %_ZN11shared_occs5resetEv.exit
  %arrayidx.i.i = getelementptr inbounds i8, ptr %.pre, i64 -4
  %7 = load i32, ptr %arrayidx.i.i, align 4
  %8 = zext i32 %7 to i64
  %add.ptr.i = getelementptr inbounds ptr, ptr %.pre, i64 %8
  %cmp3.i.not.i = icmp eq i32 %7, 0
  br i1 %cmp3.i.not.i, label %if.then.i.i.i2, label %for.body.i.i

for.body.i.i:                                     ; preds = %_ZNK6vectorIP4exprLb0EjE4sizeEv.exit.i, %_ZN15ref_vector_coreI4expr19ref_manager_wrapperIS0_11ast_managerEE7dec_refEPS0_.exit.i.i
  %it.04.i.i = phi ptr [ %incdec.ptr.i.i, %_ZN15ref_vector_coreI4expr19ref_manager_wrapperIS0_11ast_managerEE7dec_refEPS0_.exit.i.i ], [ %.pre, %_ZNK6vectorIP4exprLb0EjE4sizeEv.exit.i ]
  %9 = load ptr, ptr %it.04.i.i, align 8
  %10 = load ptr, ptr %m_shared.i, align 8
  %tobool.not.i.i.i.i.i = icmp eq ptr %9, null
  br i1 %tobool.not.i.i.i.i.i, label %_ZN15ref_vector_coreI4expr19ref_manager_wrapperIS0_11ast_managerEE7dec_refEPS0_.exit.i.i, label %if.then.i.i.i.i.i

if.then.i.i.i.i.i:                                ; preds = %for.body.i.i
  %m_ref_count.i.i.i.i.i.i = getelementptr inbounds i8, ptr %9, i64 8
  %11 = load i32, ptr %m_ref_count.i.i.i.i.i.i, align 4
  %dec.i.i.i.i.i.i = add i32 %11, -1
  store i32 %dec.i.i.i.i.i.i, ptr %m_ref_count.i.i.i.i.i.i, align 4
  %cmp.i.i.i.i.i = icmp eq i32 %dec.i.i.i.i.i.i, 0
  br i1 %cmp.i.i.i.i.i, label %if.then2.i.i.i.i.i, label %_ZN15ref_vector_coreI4expr19ref_manager_wrapperIS0_11ast_managerEE7dec_refEPS0_.exit.i.i

if.then2.i.i.i.i.i:                               ; preds = %if.then.i.i.i.i.i
  tail call void @_ZN11ast_manager11delete_nodeEP3ast(ptr noundef nonnull align 8 dereferenceable(976) %10, ptr noundef nonnull %9)
  br label %_ZN15ref_vector_coreI4expr19ref_manager_wrapperIS0_11ast_managerEE7dec_refEPS0_.exit.i.i

_ZN15ref_vector_coreI4expr19ref_manager_wrapperIS0_11ast_managerEE7dec_refEPS0_.exit.i.i: ; preds = %if.then2.i.i.i.i.i, %if.then.i.i.i.i.i, %for.body.i.i
  %incdec.ptr.i.i = getelementptr inbounds i8, ptr %it.04.i.i, i64 8
  %cmp.i1.i = icmp ult ptr %incdec.ptr.i.i, %add.ptr.i
  br i1 %cmp.i1.i, label %for.body.i.i, label %_ZN15ref_vector_coreI4expr19ref_manager_wrapperIS0_11ast_managerEE13dec_range_refEPKPS0_S7_.exit.i, !llvm.loop !4

_ZN15ref_vector_coreI4expr19ref_manager_wrapperIS0_11ast_managerEE13dec_range_refEPKPS0_S7_.exit.i: ; preds = %_ZN15ref_vector_coreI4expr19ref_manager_wrapperIS0_11ast_managerEE7dec_refEPS0_.exit.i.i
  %.pre.i = load ptr, ptr %m_nodes.i.i, align 8
  %tobool.not.i.i.i1 = icmp eq ptr %.pre.i, null
  br i1 %tobool.not.i.i.i1, label %_ZN15ref_vector_coreI4expr19ref_manager_wrapperIS0_11ast_managerEE8finalizeEv.exit, label %if.then.i.i.i2

if.then.i.i.i2:                                   ; preds = %_ZN15ref_vector_coreI4expr19ref_manager_wrapperIS0_11ast_managerEE13dec_range_refEPKPS0_S7_.exit.i, %_ZNK6vectorIP4exprLb0EjE4sizeEv.exit.i
  %12 = phi ptr [ %.pre.i, %_ZN15ref_vector_coreI4expr19ref_manager_wrapperIS0_11ast_managerEE13dec_range_refEPKPS0_S7_.exit.i ], [ %.pre, %_ZNK6vectorIP4exprLb0EjE4sizeEv.exit.i ]
  %add.ptr.i.i.i.i = getelementptr inbounds i8, ptr %12, i64 -8
  tail call void @_ZN6memory10deallocateEPv(ptr noundef nonnull %add.ptr.i.i.i.i)
  br label %_ZN15ref_vector_coreI4expr19ref_manager_wrapperIS0_11ast_managerEE8finalizeEv.exit

_ZN15ref_vector_coreI4expr19ref_manager_wrapperIS0_11ast_managerEE8finalizeEv.exit: ; preds = %_ZN15ref_vector_coreI4expr19ref_manager_wrapperIS0_11ast_managerEE13dec_range_refEPKPS0_S7_.exit.i.i, %entry, %_ZN11shared_occs5resetEv.exit, %_ZN15ref_vector_coreI4expr19ref_manager_wrapperIS0_11ast_managerEE13dec_range_refEPKPS0_S7_.exit.i, %if.then.i.i.i2
  store ptr null, ptr %m_nodes.i.i, align 8
  %m_stack = getelementptr inbounds i8, ptr %this, i64 32
  %13 = load ptr, ptr %m_stack, align 8
  %tobool.not.i.i = icmp eq ptr %13, null
  br i1 %tobool.not.i.i, label %_ZN6vectorISt4pairIP4exprjELb0EjE8finalizeEv.exit, label %if.then.i.i

if.then.i.i:                                      ; preds = %_ZN15ref_vector_coreI4expr19ref_manager_wrapperIS0_11ast_managerEE8finalizeEv.exit
  %add.ptr.i.i.i = getelementptr inbounds i8, ptr %13, i64 -8
  tail call void @_ZN6memory10deallocateEPv(ptr noundef nonnull %add.ptr.i.i.i)
  br label %_ZN6vectorISt4pairIP4exprjELb0EjE8finalizeEv.exit

_ZN6vectorISt4pairIP4exprjELb0EjE8finalizeEv.exit: ; preds = %_ZN15ref_vector_coreI4expr19ref_manager_wrapperIS0_11ast_managerEE8finalizeEv.exit, %if.then.i.i
  store ptr null, ptr %m_stack, align 8
  ret void
}